target datalayout = "e-m:e-p270:32:32-p271:32:32-p272:64:64-i64:64-i128:128-f80:128-n8:16:32:64-S128"
target triple = "x86_64-pc-linux-gnu"

%struct.ClusterInfo = type { %struct.ControlData, ptr, %struct.DbInfoArr, ptr, ptr, ptr, ptr, ptr, i16, i32, [64 x i8], i32, ptr, i32 }
%struct.ControlData = type { i32, i32, [25 x i8], i32, i32, i32, i32, i32, i32, i32, i32, i32, i32, i32, i32, i32, i32, i32, i32, i8, i8, i32 }
%struct.DbInfoArr = type { ptr, i32 }
%struct.OSInfo = type { ptr, ptr, i8, ptr, i32, ptr, i32, ptr }
%struct.DbInfo = type { i32, ptr, [1024 x i8], %struct.RelInfoArr, %struct.LogicalSlotInfoArr }
%struct.RelInfoArr = type { ptr, i32 }
%struct.LogicalSlotInfoArr = type { i32, ptr }

@old_cluster = external global %struct.ClusterInfo, align 8
@new_cluster = external global %struct.ClusterInfo, align 8
@os_info = external global %struct.OSInfo, align 8
@.str.17 = private unnamed_addr constant [24 x i8] c"%sdelete_old_cluster.%s\00", align 1
@.str.18 = private unnamed_addr constant [3 x i8] c"./\00", align 1
@.str.19 = private unnamed_addr constant [3 x i8] c"sh\00", align 1
@.str.20 = private unnamed_addr constant [83 x i8] c"\0AWARNING:  new data directory should not be inside the old data directory, i.e. %s\00", align 1
@.str.21 = private unnamed_addr constant [94 x i8] c"\0AWARNING:  user-defined tablespace locations should not be inside the data directory, i.e. %s\00", align 1
@.str.22 = private unnamed_addr constant [38 x i8] c"Creating script to delete old cluster\00", align 1
@.str.23 = private unnamed_addr constant [2 x i8] c"w\00", align 1
@.str.24 = private unnamed_addr constant [29 x i8] c"could not open file \22%s\22: %m\00", align 1
@.str.25 = private unnamed_addr constant [12 x i8] c"#!/bin/sh\0A\0A\00", align 1
@.str.26 = private unnamed_addr constant [15 x i8] c"rm -rf %c%s%c\0A\00", align 1
@.str.27 = private unnamed_addr constant [2 x i8] c"\0A\00", align 1
@.str.28 = private unnamed_addr constant [19 x i8] c"rm -rf %c%s%c%u%c\0A\00", align 1
@.str.29 = private unnamed_addr constant [17 x i8] c"rm -rf %c%s%s%c\0A\00", align 1
@.str.30 = private unnamed_addr constant [50 x i8] c"could not add execute permission to file \22%s\22: %m\00", align 1

; Function Attrs: nounwind uwtable
define internal ptr @fix_path_separator(ptr noundef %0) #0 {
  %2 = alloca ptr, align 8
  store ptr %0, ptr %2, align 8
  %3 = load ptr, ptr %2, align 8
  ret ptr %3
}

; Function Attrs: nounwind uwtable
define dso_local void @create_script_for_old_cluster_deletion(ptr noundef %0) #0 {
  %2 = alloca ptr, align 8
  %3 = alloca ptr, align 8
  %4 = alloca i32, align 4
  %5 = alloca [1024 x i8], align 16
  %6 = alloca [1024 x i8], align 16
  %7 = alloca i32, align 4
  %8 = alloca [1024 x i8], align 16
  %9 = alloca i32, align 4
  %10 = alloca ptr, align 8
  store ptr %0, ptr %2, align 8
  call void @llvm.lifetime.start.p0(i64 8, ptr %3) #9
  store ptr null, ptr %3, align 8
  call void @llvm.lifetime.start.p0(i64 4, ptr %4) #9
  call void @llvm.lifetime.start.p0(i64 1024, ptr %5) #9
  call void @llvm.lifetime.start.p0(i64 1024, ptr %6) #9
  %11 = call ptr (ptr, ...) @psprintf(ptr noundef @.str.17, ptr noundef @.str.18, ptr noundef @.str.19)
  %12 = load ptr, ptr %2, align 8
  store ptr %11, ptr %12, align 8
  %13 = getelementptr inbounds [1024 x i8], ptr %5, i64 0, i64 0
  %14 = load ptr, ptr getelementptr inbounds nuw (%struct.ClusterInfo, ptr @old_cluster, i32 0, i32 3), align 8
  %15 = call i64 @strlcpy(ptr noundef %13, ptr noundef %14, i64 noundef 1024)
  %16 = getelementptr inbounds [1024 x i8], ptr %5, i64 0, i64 0
  call void @canonicalize_path(ptr noundef %16)
  %17 = getelementptr inbounds [1024 x i8], ptr %6, i64 0, i64 0
  %18 = load ptr, ptr getelementptr inbounds nuw (%struct.ClusterInfo, ptr @new_cluster, i32 0, i32 3), align 8
  %19 = call i64 @strlcpy(ptr noundef %17, ptr noundef %18, i64 noundef 1024)
  %20 = getelementptr inbounds [1024 x i8], ptr %6, i64 0, i64 0
  call void @canonicalize_path(ptr noundef %20)
  %21 = getelementptr inbounds [1024 x i8], ptr %5, i64 0, i64 0
  %22 = getelementptr inbounds [1024 x i8], ptr %6, i64 0, i64 0
  %23 = call zeroext i1 @path_is_prefix_of_path(ptr noundef %21, ptr noundef %22)
  br i1 %23, label %24, label %32

24:                                               ; preds = %1
  %25 = getelementptr inbounds [1024 x i8], ptr %5, i64 0, i64 0
  call void (i32, ptr, ...) @pg_log(i32 noundef 4, ptr noundef @.str.20, ptr noundef %25)
  %26 = load ptr, ptr %2, align 8
  %27 = load ptr, ptr %26, align 8
  %28 = call i32 @unlink(ptr noundef %27) #9
  %29 = load ptr, ptr %2, align 8
  %30 = load ptr, ptr %29, align 8
  call void @pg_free(ptr noundef %30)
  %31 = load ptr, ptr %2, align 8
  store ptr null, ptr %31, align 8
  store i32 1, ptr %7, align 4
  br label %142

32:                                               ; preds = %1
  store i32 0, ptr %4, align 4
  br label %33

33:                                               ; preds = %61, %32
  %34 = load i32, ptr %4, align 4
  %35 = load i32, ptr getelementptr inbounds nuw (%struct.OSInfo, ptr @os_info, i32 0, i32 4), align 8
  %36 = icmp slt i32 %34, %35
  br i1 %36, label %37, label %64

37:                                               ; preds = %33
  call void @llvm.lifetime.start.p0(i64 1024, ptr %8) #9
  %38 = getelementptr inbounds [1024 x i8], ptr %8, i64 0, i64 0
  %39 = load ptr, ptr getelementptr inbounds nuw (%struct.OSInfo, ptr @os_info, i32 0, i32 3), align 8
  %40 = load i32, ptr %4, align 4
  %41 = sext i32 %40 to i64
  %42 = getelementptr inbounds ptr, ptr %39, i64 %41
  %43 = load ptr, ptr %42, align 8
  %44 = call i64 @strlcpy(ptr noundef %38, ptr noundef %43, i64 noundef 1024)
  %45 = getelementptr inbounds [1024 x i8], ptr %8, i64 0, i64 0
  call void @canonicalize_path(ptr noundef %45)
  %46 = getelementptr inbounds [1024 x i8], ptr %5, i64 0, i64 0
  %47 = getelementptr inbounds [1024 x i8], ptr %8, i64 0, i64 0
  %48 = call zeroext i1 @path_is_prefix_of_path(ptr noundef %46, ptr noundef %47)
  br i1 %48, label %49, label %57

49:                                               ; preds = %37
  %50 = getelementptr inbounds [1024 x i8], ptr %8, i64 0, i64 0
  call void (i32, ptr, ...) @pg_log(i32 noundef 4, ptr noundef @.str.21, ptr noundef %50)
  %51 = load ptr, ptr %2, align 8
  %52 = load ptr, ptr %51, align 8
  %53 = call i32 @unlink(ptr noundef %52) #9
  %54 = load ptr, ptr %2, align 8
  %55 = load ptr, ptr %54, align 8
  call void @pg_free(ptr noundef %55)
  %56 = load ptr, ptr %2, align 8
  store ptr null, ptr %56, align 8
  store i32 1, ptr %7, align 4
  br label %58

57:                                               ; preds = %37
  store i32 0, ptr %7, align 4
  br label %58

58:                                               ; preds = %57, %49
  call void @llvm.lifetime.end.p0(i64 1024, ptr %8) #9
  %59 = load i32, ptr %7, align 4
  switch i32 %59, label %142 [
    i32 0, label %60
  ]

60:                                               ; preds = %58
  br label %61

61:                                               ; preds = %60
  %62 = load i32, ptr %4, align 4
  %63 = add i32 %62, 1
  store i32 %63, ptr %4, align 4
  br label %33, !llvm.loop !18

64:                                               ; preds = %33
  call void (ptr, ...) @prep_status(ptr noundef @.str.22)
  %65 = load ptr, ptr %2, align 8
  %66 = load ptr, ptr %65, align 8
  %67 = call noalias ptr @fopen(ptr noundef %66, ptr noundef @.str.23)
  store ptr %67, ptr %3, align 8
  %68 = icmp eq ptr %67, null
  br i1 %68, label %69, label %72

69:                                               ; preds = %64
  %70 = load ptr, ptr %2, align 8
  %71 = load ptr, ptr %70, align 8
  call void (ptr, ...) @pg_fatal(ptr noundef @.str.24, ptr noundef %71) #11
  unreachable

72:                                               ; preds = %64
  %73 = load ptr, ptr %3, align 8
  %74 = call i32 (ptr, ptr, ...) @pg_fprintf(ptr noundef %73, ptr noundef @.str.25)
  %75 = load ptr, ptr %3, align 8
  %76 = load ptr, ptr getelementptr inbounds nuw (%struct.ClusterInfo, ptr @old_cluster, i32 0, i32 3), align 8
  %77 = call ptr @fix_path_separator(ptr noundef %76)
  %78 = call i32 (ptr, ptr, ...) @pg_fprintf(ptr noundef %75, ptr noundef @.str.26, i32 noundef 39, ptr noundef %77, i32 noundef 39)
  store i32 0, ptr %4, align 4
  br label %79

79:                                               ; preds = %128, %72
  %80 = load i32, ptr %4, align 4
  %81 = load i32, ptr getelementptr inbounds nuw (%struct.OSInfo, ptr @os_info, i32 0, i32 4), align 8
  %82 = icmp slt i32 %80, %81
  br i1 %82, label %83, label %131

83:                                               ; preds = %79
  %84 = load ptr, ptr getelementptr inbounds nuw (%struct.ClusterInfo, ptr @old_cluster, i32 0, i32 12), align 8
  %85 = call i64 @strlen(ptr noundef %84) #10
  %86 = icmp eq i64 %85, 0
  br i1 %86, label %87, label %113

87:                                               ; preds = %83
  call void @llvm.lifetime.start.p0(i64 4, ptr %9) #9
  %88 = load ptr, ptr %3, align 8
  %89 = call i32 (ptr, ptr, ...) @pg_fprintf(ptr noundef %88, ptr noundef @.str.27)
  store i32 0, ptr %9, align 4
  br label %90

90:                                               ; preds = %109, %87
  %91 = load i32, ptr %9, align 4
  %92 = load i32, ptr getelementptr inbounds nuw (%struct.DbInfoArr, ptr getelementptr inbounds nuw (%struct.ClusterInfo, ptr @old_cluster, i32 0, i32 2), i32 0, i32 1), align 8
  %93 = icmp slt i32 %91, %92
  br i1 %93, label %94, label %112

94:                                               ; preds = %90
  %95 = load ptr, ptr %3, align 8
  %96 = load ptr, ptr getelementptr inbounds nuw (%struct.OSInfo, ptr @os_info, i32 0, i32 3), align 8
  %97 = load i32, ptr %4, align 4
  %98 = sext i32 %97 to i64
  %99 = getelementptr inbounds ptr, ptr %96, i64 %98
  %100 = load ptr, ptr %99, align 8
  %101 = call ptr @fix_path_separator(ptr noundef %100)
  %102 = load ptr, ptr getelementptr inbounds nuw (%struct.ClusterInfo, ptr @old_cluster, i32 0, i32 2), align 8
  %103 = load i32, ptr %9, align 4
  %104 = sext i32 %103 to i64
  %105 = getelementptr inbounds %struct.DbInfo, ptr %102, i64 %104
  %106 = getelementptr inbounds nuw %struct.DbInfo, ptr %105, i32 0, i32 0
  %107 = load i32, ptr %106, align 8
  %108 = call i32 (ptr, ptr, ...) @pg_fprintf(ptr noundef %95, ptr noundef @.str.28, i32 noundef 39, ptr noundef %101, i32 noundef 47, i32 noundef %107, i32 noundef 39)
  br label %109

109:                                              ; preds = %94
  %110 = load i32, ptr %9, align 4
  %111 = add i32 %110, 1
  store i32 %111, ptr %9, align 4
  br label %90, !llvm.loop !19

112:                                              ; preds = %90
  call void @llvm.lifetime.end.p0(i64 4, ptr %9) #9
  br label %127

113:                                              ; preds = %83
  call void @llvm.lifetime.start.p0(i64 8, ptr %10) #9
  %114 = load ptr, ptr getelementptr inbounds nuw (%struct.ClusterInfo, ptr @old_cluster, i32 0, i32 12), align 8
  %115 = call ptr @pg_strdup(ptr noundef %114)
  store ptr %115, ptr %10, align 8
  %116 = load ptr, ptr %3, align 8
  %117 = load ptr, ptr getelementptr inbounds nuw (%struct.OSInfo, ptr @os_info, i32 0, i32 3), align 8
  %118 = load i32, ptr %4, align 4
  %119 = sext i32 %118 to i64
  %120 = getelementptr inbounds ptr, ptr %117, i64 %119
  %121 = load ptr, ptr %120, align 8
  %122 = call ptr @fix_path_separator(ptr noundef %121)
  %123 = load ptr, ptr %10, align 8
  %124 = call ptr @fix_path_separator(ptr noundef %123)
  %125 = call i32 (ptr, ptr, ...) @pg_fprintf(ptr noundef %116, ptr noundef @.str.29, i32 noundef 39, ptr noundef %122, ptr noundef %124, i32 noundef 39)
  %126 = load ptr, ptr %10, align 8
  call void @pfree(ptr noundef %126)
  call void @llvm.lifetime.end.p0(i64 8, ptr %10) #9
  br label %127

127:                                              ; preds = %113, %112
  br label %128

128:                                              ; preds = %127
  %129 = load i32, ptr %4, align 4
  %130 = add i32 %129, 1
  store i32 %130, ptr %4, align 4
  br label %79, !llvm.loop !20

131:                                              ; preds = %79
  %132 = load ptr, ptr %3, align 8
  %133 = call i32 @fclose(ptr noundef %132)
  %134 = load ptr, ptr %2, align 8
  %135 = load ptr, ptr %134, align 8
  %136 = call i32 @chmod(ptr noundef %135, i32 noundef 448) #9
  %137 = icmp ne i32 %136, 0
  br i1 %137, label %138, label %141

138:                                              ; preds = %131
  %139 = load ptr, ptr %2, align 8
  %140 = load ptr, ptr %139, align 8
  call void (ptr, ...) @pg_fatal(ptr noundef @.str.30, ptr noundef %140) #11
  unreachable

141:                                              ; preds = %131
  call void @check_ok()
  store i32 0, ptr %7, align 4
  br label %142

142:                                              ; preds = %141, %58, %24
  call void @llvm.lifetime.end.p0(i64 1024, ptr %6) #9
  call void @llvm.lifetime.end.p0(i64 1024, ptr %5) #9
  call void @llvm.lifetime.end.p0(i64 4, ptr %4) #9
  call void @llvm.lifetime.end.p0(i64 8, ptr %3) #9
  %143 = load i32, ptr %7, align 4
  switch i32 %143, label %145 [
    i32 0, label %144
    i32 1, label %144
  ]

144:                                              ; preds = %142, %142
  ret void

145:                                              ; preds = %142
  unreachable
}