; Function Attrs: nounwind uwtable
define dso_local void @create_script_for_old_cluster_deletion(ptr noundef captures(none) initializes((0, 8)) %0) local_unnamed_addr #0 {
  %2 = alloca [1024 x i8], align 16
  %3 = alloca [1024 x i8], align 16
  %4 = alloca [1024 x i8], align 16
  call void @llvm.lifetime.start.p0(i64 1024, ptr nonnull %2) #10
  call void @llvm.lifetime.start.p0(i64 1024, ptr nonnull %3) #10
  %5 = tail call ptr (ptr, ...) @psprintf(ptr noundef nonnull @.str.17, ptr noundef nonnull @.str.18, ptr noundef nonnull @.str.19) #10
  store ptr %5, ptr %0, align 8
  %6 = load ptr, ptr getelementptr inbounds nuw (i8, ptr @old_cluster, i64 136), align 8
  %7 = call i64 @strlcpy(ptr noundef nonnull dereferenceable(1) %2, ptr noundef nonnull dereferenceable(1) %6, i64 noundef 1024) #10
  call void @canonicalize_path(ptr noundef nonnull %2) #10
  %8 = load ptr, ptr getelementptr inbounds nuw (i8, ptr @new_cluster, i64 136), align 8
  %9 = call i64 @strlcpy(ptr noundef nonnull dereferenceable(1) %3, ptr noundef nonnull dereferenceable(1) %8, i64 noundef 1024) #10
  call void @canonicalize_path(ptr noundef nonnull %3) #10
  %10 = call zeroext i1 @path_is_prefix_of_path(ptr noundef nonnull %2, ptr noundef nonnull %3) #10
  br i1 %10, label %13, label %.preheader

.preheader:                                       ; preds = %1
  %11 = load i32, ptr getelementptr inbounds nuw (i8, ptr @os_info, i64 32), align 8
  %12 = icmp sgt i32 %11, 0
  br i1 %12, label %.lr.ph, label %._crit_edge

13:                                               ; preds = %1
  call void (i32, ptr, ...) @pg_log(i32 noundef 4, ptr noundef nonnull @.str.20, ptr noundef nonnull %2) #10
  %14 = load ptr, ptr %0, align 8
  %15 = call i32 @unlink(ptr noundef %14) #10
  %16 = load ptr, ptr %0, align 8
  call void @pg_free(ptr noundef %16) #10
  store ptr null, ptr %0, align 8
  br label %71

.lr.ph:                                           ; preds = %.preheader, %.critedge
  %indvars.iv = phi i64 [ %indvars.iv.next, %.critedge ], [ 0, %.preheader ]
  call void @llvm.lifetime.start.p0(i64 1024, ptr nonnull %4) #10
  %17 = load ptr, ptr getelementptr inbounds nuw (i8, ptr @os_info, i64 24), align 8
  %18 = getelementptr inbounds nuw ptr, ptr %17, i64 %indvars.iv
  %19 = load ptr, ptr %18, align 8
  %20 = call i64 @strlcpy(ptr noundef nonnull dereferenceable(1) %4, ptr noundef nonnull dereferenceable(1) %19, i64 noundef 1024) #10
  call void @canonicalize_path(ptr noundef nonnull %4) #10
  %21 = call zeroext i1 @path_is_prefix_of_path(ptr noundef nonnull %2, ptr noundef nonnull %4) #10
  br i1 %21, label %22, label %.critedge

22:                                               ; preds = %.lr.ph
  call void (i32, ptr, ...) @pg_log(i32 noundef 4, ptr noundef nonnull @.str.21, ptr noundef nonnull %4) #10
  %23 = load ptr, ptr %0, align 8
  %24 = call i32 @unlink(ptr noundef %23) #10
  %25 = load ptr, ptr %0, align 8
  call void @pg_free(ptr noundef %25) #10
  store ptr null, ptr %0, align 8
  call void @llvm.lifetime.end.p0(i64 1024, ptr nonnull %4) #10
  br label %71

.critedge:                                        ; preds = %.lr.ph
  call void @llvm.lifetime.end.p0(i64 1024, ptr nonnull %4) #10
  %indvars.iv.next = add nuw nsw i64 %indvars.iv, 1
  %26 = load i32, ptr getelementptr inbounds nuw (i8, ptr @os_info, i64 32), align 8
  %27 = sext i32 %26 to i64
  %28 = icmp slt i64 %indvars.iv.next, %27
  br i1 %28, label %.lr.ph, label %._crit_edge, !llvm.loop !18

._crit_edge:                                      ; preds = %.critedge, %.preheader
  call void (ptr, ...) @prep_status(ptr noundef nonnull @.str.22) #10
  %29 = load ptr, ptr %0, align 8
  %30 = call noalias ptr @fopen(ptr noundef %29, ptr noundef nonnull @.str.23)
  %31 = icmp eq ptr %30, null
  br i1 %31, label %32, label %34

32:                                               ; preds = %._crit_edge
  %33 = load ptr, ptr %0, align 8
  call void (ptr, ...) @pg_fatal(ptr noundef nonnull @.str.24, ptr noundef %33) #12
  unreachable

34:                                               ; preds = %._crit_edge
  %35 = call i32 (ptr, ptr, ...) @pg_fprintf(ptr noundef nonnull %30, ptr noundef nonnull @.str.25) #10
  %36 = load ptr, ptr getelementptr inbounds nuw (i8, ptr @old_cluster, i64 136), align 8
  %37 = call i32 (ptr, ptr, ...) @pg_fprintf(ptr noundef nonnull %30, ptr noundef nonnull @.str.26, i32 noundef 39, ptr noundef %36, i32 noundef 39) #10
  %38 = load i32, ptr getelementptr inbounds nuw (i8, ptr @os_info, i64 32), align 8
  %39 = icmp sgt i32 %38, 0
  br i1 %39, label %.lr.ph39, label %._crit_edge40

.lr.ph39:                                         ; preds = %34, %.loopexit
  %indvars.iv45 = phi i64 [ %indvars.iv.next46, %.loopexit ], [ 0, %34 ]
  %40 = load ptr, ptr getelementptr inbounds nuw (i8, ptr @old_cluster, i64 256), align 8
  %char0 = load i8, ptr %40, align 1
  %41 = icmp eq i8 %char0, 0
  br i1 %41, label %42, label %56

42:                                               ; preds = %.lr.ph39
  %43 = call i32 (ptr, ptr, ...) @pg_fprintf(ptr noundef nonnull %30, ptr noundef nonnull @.str.27) #10
  %44 = load i32, ptr getelementptr inbounds nuw (i8, ptr @old_cluster, i64 128), align 8
  %45 = icmp sgt i32 %44, 0
  br i1 %45, label %.lr.ph35, label %.loopexit

.lr.ph35:                                         ; preds = %42, %.lr.ph35
  %indvars.iv42 = phi i64 [ %indvars.iv.next43, %.lr.ph35 ], [ 0, %42 ]
  %46 = load ptr, ptr getelementptr inbounds nuw (i8, ptr @os_info, i64 24), align 8
  %47 = getelementptr inbounds nuw ptr, ptr %46, i64 %indvars.iv45
  %48 = load ptr, ptr %47, align 8
  %49 = load ptr, ptr getelementptr inbounds nuw (i8, ptr @old_cluster, i64 120), align 8
  %50 = getelementptr inbounds nuw %struct.DbInfo, ptr %49, i64 %indvars.iv42
  %51 = load i32, ptr %50, align 8
  %52 = call i32 (ptr, ptr, ...) @pg_fprintf(ptr noundef nonnull %30, ptr noundef nonnull @.str.28, i32 noundef 39, ptr noundef %48, i32 noundef 47, i32 noundef %51, i32 noundef 39) #10
  %indvars.iv.next43 = add nuw nsw i64 %indvars.iv42, 1
  %53 = load i32, ptr getelementptr inbounds nuw (i8, ptr @old_cluster, i64 128), align 8
  %54 = sext i32 %53 to i64
  %55 = icmp slt i64 %indvars.iv.next43, %54
  br i1 %55, label %.lr.ph35, label %.loopexit, !llvm.loop !19

56:                                               ; preds = %.lr.ph39
  %57 = call ptr @pg_strdup(ptr noundef nonnull %40) #10
  %58 = load ptr, ptr getelementptr inbounds nuw (i8, ptr @os_info, i64 24), align 8
  %59 = getelementptr inbounds nuw ptr, ptr %58, i64 %indvars.iv45
  %60 = load ptr, ptr %59, align 8
  %61 = call i32 (ptr, ptr, ...) @pg_fprintf(ptr noundef nonnull %30, ptr noundef nonnull @.str.29, i32 noundef 39, ptr noundef %60, ptr noundef %57, i32 noundef 39) #10
  call void @pfree(ptr noundef %57) #10
  br label %.loopexit

.loopexit:                                        ; preds = %.lr.ph35, %42, %56
  %indvars.iv.next46 = add nuw nsw i64 %indvars.iv45, 1
  %62 = load i32, ptr getelementptr inbounds nuw (i8, ptr @os_info, i64 32), align 8
  %63 = sext i32 %62 to i64
  %64 = icmp slt i64 %indvars.iv.next46, %63
  br i1 %64, label %.lr.ph39, label %._crit_edge40, !llvm.loop !20

._crit_edge40:                                    ; preds = %.loopexit, %34
  %65 = call i32 @fclose(ptr noundef nonnull %30)
  %66 = load ptr, ptr %0, align 8
  %67 = call i32 @chmod(ptr noundef %66, i32 noundef 448) #10
  %.not = icmp eq i32 %67, 0
  br i1 %.not, label %70, label %68

68:                                               ; preds = %._crit_edge40
  %69 = load ptr, ptr %0, align 8
  call void (ptr, ...) @pg_fatal(ptr noundef nonnull @.str.30, ptr noundef %69) #12
  unreachable

70:                                               ; preds = %._crit_edge40
  call void @check_ok() #10
  br label %71

71:                                               ; preds = %22, %70, %13
  call void @llvm.lifetime.end.p0(i64 1024, ptr nonnull %3) #10
  call void @llvm.lifetime.end.p0(i64 1024, ptr nonnull %2) #10
  ret void
}